; Function Attrs: nounwind uwtable
define void @TS_VERIFY_CTX_init(ptr noundef writeonly captures(address_is_null) %0) local_unnamed_addr #0 {
  %.not = icmp eq ptr %0, null
  br i1 %.not, label %2, label %3

2:                                                ; preds = %1
  tail call void @OPENSSL_die(ptr noundef nonnull @.str.1, ptr noundef nonnull @.str, i32 noundef 24) #8
  unreachable

3:                                                ; preds = %1
  tail call void @llvm.memset.p0.i64(ptr noundef nonnull align 8 dereferenceable(80) %0, i8 0, i64 80, i1 false)
  ret void
}